target datalayout = "e-m:e-p270:32:32-p271:32:32-p272:64:64-i64:64-i128:128-f80:128-n8:16:32:64-S128"
target triple = "x86_64-pc-linux-gnu"

%struct._dcerpc_info = type { ptr, i32, i64, i8, i8, i8, i32, i32, i32, i32, i32, i32, i32, i32, ptr, ptr, ptr, ptr, %struct.anon }
%struct.anon = type { i8, ptr, ptr, ptr, i8 }
%struct._dcerpc_call_value = type { %struct._e_guid_t, i16, %struct._e_guid_t, i16, i32, %struct.nstime_t, i32, i32, ptr, ptr, ptr, i32 }
%struct._e_guid_t = type { i32, i16, i16, [8 x i8] }
%struct.nstime_t = type { i64, i32 }
%struct._packet_info = type { ptr, ptr, i32, i32, %struct.nstime_t, %struct.nstime_t, %struct.nstime_t, i8, ptr, ptr, ptr, ptr, %struct._address, %struct._address, %struct._address, %struct._address, %struct._address, %struct._address, i32, ptr, i8, [3 x i8], %struct.anon.0, i32, i32, i32, i32, ptr, i8, ptr, ptr, i16, i16, i32, i32, i16, i32, i32, ptr, ptr, ptr, i8, i8, i16, i16, i16, i32, i16, i16, ptr, ptr, ptr, ptr, ptr, i32, i32 }
%struct._address = type { i32, i32, ptr, ptr }
%struct.anon.0 = type { i8, [3 x i8] }
%struct._proto_node = type { ptr, ptr, ptr, ptr, ptr, ptr, ptr }

@.str.10 = private unnamed_addr constant [5 x i8] c", %s\00", align 1
@.str.15 = private unnamed_addr constant [5 x i8] c": %s\00", align 1
@.str.16 = private unnamed_addr constant [4 x i8] c" %s\00", align 1

; Function Attrs: null_pointer_is_valid sspstrong uwtable
define internal void @cb_str_postprocess_options(ptr noundef %0, ptr noundef %1, ptr noundef %2, i32 noundef %3, ptr noundef %4) #0 {
  %6 = alloca ptr, align 8
  %7 = alloca ptr, align 8
  %8 = alloca ptr, align 8
  %9 = alloca i32, align 4
  %10 = alloca ptr, align 8
  %11 = alloca i32, align 4
  %12 = alloca ptr, align 8
  store ptr %0, ptr %6, align 8
  store ptr %1, ptr %7, align 8
  store ptr %2, ptr %8, align 8
  store i32 %3, ptr %9, align 4
  store ptr %4, ptr %10, align 8
  call void @llvm.lifetime.start.p0(i64 4, ptr %11) #13
  %13 = load i32, ptr %9, align 4
  %14 = and i32 %13, 65535
  store i32 %14, ptr %11, align 4
  %15 = load i32, ptr %9, align 4
  %16 = and i32 %15, 268435456
  %17 = icmp ne i32 %16, 0
  br i1 %17, label %18, label %23

18:                                               ; preds = %5
  %19 = load ptr, ptr %6, align 8
  %20 = getelementptr inbounds nuw %struct._packet_info, ptr %19, i32 0, i32 1
  %21 = load ptr, ptr %20, align 8
  %22 = load ptr, ptr %10, align 8
  call void (ptr, i32, ptr, ...) @col_append_fstr(ptr noundef %21, i32 noundef 25, ptr noundef @.str.10, ptr noundef %22)
  br label %23

23:                                               ; preds = %18, %5
  %24 = load i32, ptr %11, align 4
  %25 = icmp sgt i32 %24, 0
  br i1 %25, label %26, label %104

26:                                               ; preds = %23
  %27 = load ptr, ptr %7, align 8
  %28 = icmp ne ptr %27, null
  br i1 %28, label %29, label %104

29:                                               ; preds = %26
  %30 = load ptr, ptr %10, align 8
  %31 = icmp ne ptr %30, null
  br i1 %31, label %32, label %104

32:                                               ; preds = %29
  %33 = load ptr, ptr %10, align 8
  %34 = getelementptr i8, ptr %33, i64 0
  %35 = load i8, ptr %34, align 1
  %36 = sext i8 %35 to i32
  %37 = icmp ne i32 %36, 0
  br i1 %37, label %38, label %104

38:                                               ; preds = %32
  %39 = load ptr, ptr %7, align 8
  %40 = load ptr, ptr %10, align 8
  call void (ptr, ptr, ...) @proto_item_append_text(ptr noundef %39, ptr noundef @.str.15, ptr noundef %40)
  %41 = load ptr, ptr %7, align 8
  %42 = getelementptr inbounds nuw %struct._proto_node, ptr %41, i32 0, i32 3
  %43 = load ptr, ptr %42, align 8
  %44 = icmp ne ptr %43, null
  br i1 %44, label %45, label %49

45:                                               ; preds = %38
  %46 = load ptr, ptr %7, align 8
  %47 = getelementptr inbounds nuw %struct._proto_node, ptr %46, i32 0, i32 3
  %48 = load ptr, ptr %47, align 8
  br label %51

49:                                               ; preds = %38
  %50 = load ptr, ptr %7, align 8
  br label %51

51:                                               ; preds = %49, %45
  %52 = phi ptr [ %48, %45 ], [ %50, %49 ]
  store ptr %52, ptr %7, align 8
  %53 = load i32, ptr %11, align 4
  %54 = add i32 %53, -1
  store i32 %54, ptr %11, align 4
  %55 = load ptr, ptr %7, align 8
  %56 = icmp ne ptr %55, null
  br i1 %56, label %57, label %103

57:                                               ; preds = %51
  %58 = load i32, ptr %11, align 4
  %59 = icmp sgt i32 %58, 0
  br i1 %59, label %60, label %103

60:                                               ; preds = %57
  %61 = load ptr, ptr %7, align 8
  %62 = load ptr, ptr %10, align 8
  call void (ptr, ptr, ...) @proto_item_append_text(ptr noundef %61, ptr noundef @.str.15, ptr noundef %62)
  %63 = load ptr, ptr %7, align 8
  %64 = getelementptr inbounds nuw %struct._proto_node, ptr %63, i32 0, i32 3
  %65 = load ptr, ptr %64, align 8
  %66 = icmp ne ptr %65, null
  br i1 %66, label %67, label %71

67:                                               ; preds = %60
  %68 = load ptr, ptr %7, align 8
  %69 = getelementptr inbounds nuw %struct._proto_node, ptr %68, i32 0, i32 3
  %70 = load ptr, ptr %69, align 8
  br label %73

71:                                               ; preds = %60
  %72 = load ptr, ptr %7, align 8
  br label %73

73:                                               ; preds = %71, %67
  %74 = phi ptr [ %70, %67 ], [ %72, %71 ]
  store ptr %74, ptr %7, align 8
  %75 = load i32, ptr %11, align 4
  %76 = add i32 %75, -1
  store i32 %76, ptr %11, align 4
  br label %77

77:                                               ; preds = %98, %73
  %78 = load ptr, ptr %7, align 8
  %79 = icmp ne ptr %78, null
  br i1 %79, label %80, label %83

80:                                               ; preds = %77
  %81 = load i32, ptr %11, align 4
  %82 = icmp sgt i32 %81, 0
  br label %83

83:                                               ; preds = %80, %77
  %84 = phi i1 [ false, %77 ], [ %82, %80 ]
  br i1 %84, label %85, label %102

85:                                               ; preds = %83
  %86 = load ptr, ptr %7, align 8
  %87 = load ptr, ptr %10, align 8
  call void (ptr, ptr, ...) @proto_item_append_text(ptr noundef %86, ptr noundef @.str.16, ptr noundef %87)
  %88 = load ptr, ptr %7, align 8
  %89 = getelementptr inbounds nuw %struct._proto_node, ptr %88, i32 0, i32 3
  %90 = load ptr, ptr %89, align 8
  %91 = icmp ne ptr %90, null
  br i1 %91, label %92, label %96

92:                                               ; preds = %85
  %93 = load ptr, ptr %7, align 8
  %94 = getelementptr inbounds nuw %struct._proto_node, ptr %93, i32 0, i32 3
  %95 = load ptr, ptr %94, align 8
  br label %98

96:                                               ; preds = %85
  %97 = load ptr, ptr %7, align 8
  br label %98

98:                                               ; preds = %96, %92
  %99 = phi ptr [ %95, %92 ], [ %97, %96 ]
  store ptr %99, ptr %7, align 8
  %100 = load i32, ptr %11, align 4
  %101 = add i32 %100, -1
  store i32 %101, ptr %11, align 4
  br label %77, !llvm.loop !12

102:                                              ; preds = %83
  br label %103

103:                                              ; preds = %102, %57, %51
  br label %104

104:                                              ; preds = %103, %32, %29, %26, %23
  %105 = load i32, ptr %9, align 4
  %106 = and i32 %105, 536870912
  %107 = icmp ne i32 %106, 0
  br i1 %107, label %108, label %117

108:                                              ; preds = %104
  call void @llvm.lifetime.start.p0(i64 8, ptr %12) #13
  %109 = load ptr, ptr %8, align 8
  %110 = getelementptr inbounds nuw %struct._dcerpc_info, ptr %109, i32 0, i32 14
  %111 = load ptr, ptr %110, align 8
  store ptr %111, ptr %12, align 8
  %112 = call ptr @wmem_file_scope()
  %113 = load ptr, ptr %10, align 8
  %114 = call noalias ptr @wmem_strdup(ptr noundef %112, ptr noundef %113)
  %115 = load ptr, ptr %12, align 8
  %116 = getelementptr inbounds nuw %struct._dcerpc_call_value, ptr %115, i32 0, i32 9
  store ptr %114, ptr %116, align 8
  call void @llvm.lifetime.end.p0(i64 8, ptr %12) #13
  br label %117

117:                                              ; preds = %108, %104
  call void @llvm.lifetime.end.p0(i64 4, ptr %11) #13
  ret void
}