; Function Attrs: null_pointer_is_valid sspstrong uwtable
define internal fastcc void @cb_str_postprocess_options(ptr noundef readonly captures(none) %0, ptr noundef %1, ptr noundef readonly captures(none) %2, i32 noundef %3, ptr noundef %4) unnamed_addr #0 {
  %6 = and i32 %3, 65535
  %7 = and i32 %3, 268435456
  %.not = icmp eq i32 %7, 0
  br i1 %.not, label %11, label %8

8:                                                ; preds = %5
  %9 = getelementptr inbounds nuw i8, ptr %0, i64 8
  %10 = load ptr, ptr %9, align 8
  tail call void (ptr, i32, ptr, ...) @col_append_fstr(ptr noundef %10, i32 noundef 25, ptr noundef nonnull @.str.10, ptr noundef %4)
  br label %11

11:                                               ; preds = %8, %5
  %12 = icmp ne i32 %6, 0
  %13 = icmp ne ptr %1, null
  %or.cond = and i1 %13, %12
  %14 = icmp ne ptr %4, null
  %or.cond3 = and i1 %14, %or.cond
  br i1 %or.cond3, label %15, label %.loopexit

15:                                               ; preds = %11
  %16 = load i8, ptr %4, align 1
  %.not46 = icmp eq i8 %16, 0
  br i1 %.not46, label %.loopexit, label %17

17:                                               ; preds = %15
  tail call void (ptr, ptr, ...) @proto_item_append_text(ptr noundef nonnull %1, ptr noundef nonnull @.str.15, ptr noundef nonnull %4)
  %18 = icmp samesign ugt i32 %6, 1
  br i1 %18, label %19, label %.loopexit

19:                                               ; preds = %17
  %20 = getelementptr inbounds nuw i8, ptr %1, i64 24
  %21 = load ptr, ptr %20, align 8
  %.not47 = icmp eq ptr %21, null
  %. = select i1 %.not47, ptr %1, ptr %21
  tail call void (ptr, ptr, ...) @proto_item_append_text(ptr noundef nonnull %., ptr noundef nonnull @.str.15, ptr noundef nonnull %4)
  %.not53 = icmp eq i32 %6, 2
  br i1 %.not53, label %.loopexit, label %.lr.ph.preheader

.lr.ph.preheader:                                 ; preds = %19
  %22 = add nsw i32 %6, -2
  %23 = getelementptr inbounds nuw i8, ptr %., i64 24
  %24 = load ptr, ptr %23, align 8
  %.not48 = icmp eq ptr %24, null
  %.. = select i1 %.not48, ptr %., ptr %24
  br label %.lr.ph

.lr.ph:                                           ; preds = %.lr.ph.preheader, %.lr.ph
  %.052 = phi ptr [ %.0., %.lr.ph ], [ %.., %.lr.ph.preheader ]
  %.03851 = phi i32 [ %27, %.lr.ph ], [ %22, %.lr.ph.preheader ]
  tail call void (ptr, ptr, ...) @proto_item_append_text(ptr noundef %.052, ptr noundef nonnull @.str.16, ptr noundef nonnull %4)
  %25 = getelementptr inbounds nuw i8, ptr %.052, i64 24
  %26 = load ptr, ptr %25, align 8
  %.not50 = icmp eq ptr %26, null
  %.0. = select i1 %.not50, ptr %.052, ptr %26
  %27 = add nsw i32 %.03851, -1
  %28 = icmp samesign ugt i32 %.03851, 1
  br i1 %28, label %.lr.ph, label %.loopexit, !llvm.loop !12

.loopexit:                                        ; preds = %.lr.ph, %19, %17, %15, %11
  %29 = and i32 %3, 536870912
  %.not49 = icmp eq i32 %29, 0
  br i1 %.not49, label %36, label %30

30:                                               ; preds = %.loopexit
  %31 = getelementptr inbounds nuw i8, ptr %2, i64 64
  %32 = load ptr, ptr %31, align 8
  %33 = tail call ptr @wmem_file_scope()
  %34 = tail call noalias ptr @wmem_strdup(ptr noundef %33, ptr noundef %4)
  %35 = getelementptr inbounds nuw i8, ptr %32, i64 80
  store ptr %34, ptr %35, align 8
  br label %36

36:                                               ; preds = %30, %.loopexit
  ret void
}